; Function Attrs: mustprogress uwtable
define void @_ZN7Imf_3_47KeyCode8setCountEi(ptr noundef nonnull writeonly align 4 captures(none) dereferenceable(28) %0, i32 noundef %1) local_unnamed_addr #0 align 2 personality ptr @__gxx_personality_v0 {
  %or.cond = icmp ugt i32 %1, 9999
  br i1 %or.cond, label %3, label %8

3:                                                ; preds = %2
  %4 = tail call ptr @__cxa_allocate_exception(i64 72) #6
  invoke void @_ZN7Iex_3_46ArgExcC1EPKc(ptr noundef nonnull align 8 dereferenceable(72) %4, ptr noundef nonnull @.str.3)
          to label %5 unwind label %6

5:                                                ; preds = %3
  tail call void @__cxa_throw(ptr nonnull %4, ptr nonnull @_ZTIN7Iex_3_46ArgExcE, ptr nonnull @_ZN7Iex_3_46ArgExcD1Ev) #7
  unreachable

6:                                                ; preds = %3
  %7 = landingpad { ptr, i32 }
          cleanup
  tail call void @__cxa_free_exception(ptr nonnull %4) #6
  resume { ptr, i32 } %7

8:                                                ; preds = %2
  %9 = getelementptr inbounds nuw i8, ptr %0, i64 12
  store i32 %1, ptr %9, align 4, !tbaa !10
  ret void
}